; Function Attrs: nounwind uwtable
define internal void @mi_out_stderr(ptr noundef %0, ptr readnone captures(none) %1) #1 {
  %.not = icmp eq ptr %0, null
  br i1 %.not, label %6, label %3

3:                                                ; preds = %2
  %4 = load i8, ptr %0, align 1, !tbaa !3
  %.not3 = icmp eq i8 %4, 0
  br i1 %.not3, label %6, label %5

5:                                                ; preds = %3
  tail call void @_mi_prim_out_stderr(ptr noundef nonnull %0) #16
  br label %6

6:                                                ; preds = %5, %3, %2
  ret void
}